; Function Attrs: mustprogress nounwind uwtable
define hidden void @_ZN6hermes3hbc20BCProviderFromBuffer10stopWarmupEv(ptr noundef nonnull align 8 dereferenceable(376) %this) local_unnamed_addr #0 align 2 {
entry:
  %warmupThread_ = getelementptr inbounds i8, ptr %this, i64 336
  %hasVal.i = getelementptr inbounds i8, ptr %this, i64 344
  %0 = load i8, ptr %hasVal.i, align 8
  %1 = and i8 %0, 1
  %tobool.i.not = icmp eq i8 %1, 0
  br i1 %tobool.i.not, label %if.end, label %if.then

if.then:                                          ; preds = %entry
  %warmupAbortFlag_ = getelementptr inbounds i8, ptr %this, i64 352
  store atomic i8 1, ptr %warmupAbortFlag_ release, align 8
  tail call void @_ZNSt6thread4joinEv(ptr noundef nonnull align 8 dereferenceable(8) %warmupThread_) #19
  %2 = load i8, ptr %hasVal.i, align 8
  %3 = and i8 %2, 1
  %tobool.not.i.i = icmp eq i8 %3, 0
  br i1 %tobool.not.i.i, label %if.end, label %if.then.i.i

if.then.i.i:                                      ; preds = %if.then
  %agg.tmp.sroa.0.0.copyload.i.i.i.i = load i64, ptr %warmupThread_, align 8
  %cmp.i.i.not.i.i.i = icmp eq i64 %agg.tmp.sroa.0.0.copyload.i.i.i.i, 0
  br i1 %cmp.i.i.not.i.i.i, label %_ZNSt6threadD2Ev.exit.i.i, label %if.then.i.i.i

if.then.i.i.i:                                    ; preds = %if.then.i.i
  tail call void @_ZSt9terminatev() #20
  unreachable

_ZNSt6threadD2Ev.exit.i.i:                        ; preds = %if.then.i.i
  store i8 0, ptr %hasVal.i, align 8
  br label %if.end

if.end:                                           ; preds = %_ZNSt6threadD2Ev.exit.i.i, %if.then, %entry
  ret void
}